target datalayout = "e-m:e-p270:32:32-p271:32:32-p272:64:64-i64:64-i128:128-f80:128-n8:16:32:64-S128"
target triple = "x86_64-pc-linux-gnu"

%struct.TupleTableSlotOps = type { i64, ptr, ptr, ptr, ptr, ptr, ptr, ptr, ptr, ptr, ptr, ptr, ptr }
%struct.ResultRelInfo = type { i32, i32, ptr, i32, ptr, ptr, i16, ptr, i8, ptr, ptr, ptr, i8, i8, ptr, ptr, ptr, ptr, ptr, ptr, ptr, ptr, ptr, ptr, i8, i32, i32, i32, ptr, ptr, ptr, ptr, ptr, ptr, ptr, i32, i32, ptr, ptr, ptr, ptr, [3 x ptr], ptr, ptr, ptr, i8, ptr, i8, ptr, ptr, ptr, ptr }
%struct.RelationData = type { %struct.RelFileLocator, ptr, i32, i32, i8, i8, i8, i8, i8, i32, i32, i32, i32, ptr, ptr, i32, %struct.LockInfoData, ptr, ptr, ptr, ptr, ptr, i8, ptr, ptr, ptr, ptr, ptr, ptr, i32, ptr, i8, ptr, ptr, i32, i8, i32, ptr, i8, ptr, ptr, ptr, ptr, ptr, ptr, ptr, i32, ptr, ptr, ptr, ptr, ptr, ptr, ptr, ptr, ptr, ptr, ptr, ptr, ptr, ptr, ptr, ptr, ptr, ptr, ptr, i32, i8, ptr }
%struct.RelFileLocator = type { i32, i32, i32 }
%struct.LockInfoData = type { %struct.LockRelId }
%struct.LockRelId = type { i32, i32 }
%struct.FormData_pg_class = type { i32, %struct.nameData, i32, i32, i32, i32, i32, i32, i32, i32, float, i32, i32, i8, i8, i8, i8, i16, i16, i8, i8, i8, i8, i8, i8, i8, i8, i32, i32, i32 }
%struct.nameData = type { [64 x i8] }

@.str.1 = private unnamed_addr constant [11 x i8] c"execMain.c\00", align 1
@TTSOpsVirtual = external constant %struct.TupleTableSlotOps, align 8
@.str.14 = private unnamed_addr constant [56 x i8] c"new row for relation \22%s\22 violates partition constraint\00", align 1
@.str.15 = private unnamed_addr constant [25 x i8] c"Failing row contains %s.\00", align 1
@__func__.ExecPartitionCheckEmitError = private unnamed_addr constant [28 x i8] c"ExecPartitionCheckEmitError\00", align 1

; Function Attrs: nounwind uwtable
define dso_local void @ExecPartitionCheckEmitError(ptr noundef %0, ptr noundef %1, ptr noundef %2) #0 {
  %4 = alloca ptr, align 8
  %5 = alloca ptr, align 8
  %6 = alloca ptr, align 8
  %7 = alloca i32, align 4
  %8 = alloca ptr, align 8
  %9 = alloca ptr, align 8
  %10 = alloca ptr, align 8
  %11 = alloca ptr, align 8
  %12 = alloca ptr, align 8
  %13 = alloca ptr, align 8
  store ptr %0, ptr %4, align 8
  store ptr %1, ptr %5, align 8
  store ptr %2, ptr %6, align 8
  call void @llvm.lifetime.start.p0(i64 4, ptr %7) #9
  call void @llvm.lifetime.start.p0(i64 8, ptr %8) #9
  call void @llvm.lifetime.start.p0(i64 8, ptr %9) #9
  call void @llvm.lifetime.start.p0(i64 8, ptr %10) #9
  %14 = load ptr, ptr %4, align 8
  %15 = getelementptr inbounds nuw %struct.ResultRelInfo, ptr %14, i32 0, i32 48
  %16 = load ptr, ptr %15, align 8
  %17 = icmp ne ptr %16, null
  br i1 %17, label %18, label %56

18:                                               ; preds = %3
  call void @llvm.lifetime.start.p0(i64 8, ptr %11) #9
  %19 = load ptr, ptr %4, align 8
  %20 = getelementptr inbounds nuw %struct.ResultRelInfo, ptr %19, i32 0, i32 48
  %21 = load ptr, ptr %20, align 8
  store ptr %21, ptr %11, align 8
  call void @llvm.lifetime.start.p0(i64 8, ptr %12) #9
  call void @llvm.lifetime.start.p0(i64 8, ptr %13) #9
  %22 = load ptr, ptr %11, align 8
  %23 = getelementptr inbounds nuw %struct.ResultRelInfo, ptr %22, i32 0, i32 2
  %24 = load ptr, ptr %23, align 8
  %25 = getelementptr inbounds nuw %struct.RelationData, ptr %24, i32 0, i32 15
  %26 = load i32, ptr %25, align 8
  store i32 %26, ptr %7, align 4
  %27 = load ptr, ptr %11, align 8
  %28 = getelementptr inbounds nuw %struct.ResultRelInfo, ptr %27, i32 0, i32 2
  %29 = load ptr, ptr %28, align 8
  %30 = getelementptr inbounds nuw %struct.RelationData, ptr %29, i32 0, i32 14
  %31 = load ptr, ptr %30, align 8
  store ptr %31, ptr %8, align 8
  %32 = load ptr, ptr %4, align 8
  %33 = getelementptr inbounds nuw %struct.ResultRelInfo, ptr %32, i32 0, i32 2
  %34 = load ptr, ptr %33, align 8
  %35 = getelementptr inbounds nuw %struct.RelationData, ptr %34, i32 0, i32 14
  %36 = load ptr, ptr %35, align 8
  store ptr %36, ptr %12, align 8
  %37 = load ptr, ptr %12, align 8
  %38 = load ptr, ptr %8, align 8
  %39 = call ptr @build_attrmap_by_name_if_req(ptr noundef %37, ptr noundef %38, i1 noundef zeroext false)
  store ptr %39, ptr %13, align 8
  %40 = load ptr, ptr %13, align 8
  %41 = icmp ne ptr %40, null
  br i1 %41, label %42, label %48

42:                                               ; preds = %18
  %43 = load ptr, ptr %13, align 8
  %44 = load ptr, ptr %5, align 8
  %45 = load ptr, ptr %8, align 8
  %46 = call ptr @MakeTupleTableSlot(ptr noundef %45, ptr noundef @TTSOpsVirtual)
  %47 = call ptr @execute_attr_map_slot(ptr noundef %43, ptr noundef %44, ptr noundef %46)
  store ptr %47, ptr %5, align 8
  br label %48

48:                                               ; preds = %42, %18
  %49 = load ptr, ptr %11, align 8
  %50 = load ptr, ptr %6, align 8
  %51 = call ptr @ExecGetInsertedCols(ptr noundef %49, ptr noundef %50)
  %52 = load ptr, ptr %11, align 8
  %53 = load ptr, ptr %6, align 8
  %54 = call ptr @ExecGetUpdatedCols(ptr noundef %52, ptr noundef %53)
  %55 = call ptr @bms_union(ptr noundef %51, ptr noundef %54)
  store ptr %55, ptr %10, align 8
  call void @llvm.lifetime.end.p0(i64 8, ptr %13) #9
  call void @llvm.lifetime.end.p0(i64 8, ptr %12) #9
  call void @llvm.lifetime.end.p0(i64 8, ptr %11) #9
  br label %74

56:                                               ; preds = %3
  %57 = load ptr, ptr %4, align 8
  %58 = getelementptr inbounds nuw %struct.ResultRelInfo, ptr %57, i32 0, i32 2
  %59 = load ptr, ptr %58, align 8
  %60 = getelementptr inbounds nuw %struct.RelationData, ptr %59, i32 0, i32 15
  %61 = load i32, ptr %60, align 8
  store i32 %61, ptr %7, align 4
  %62 = load ptr, ptr %4, align 8
  %63 = getelementptr inbounds nuw %struct.ResultRelInfo, ptr %62, i32 0, i32 2
  %64 = load ptr, ptr %63, align 8
  %65 = getelementptr inbounds nuw %struct.RelationData, ptr %64, i32 0, i32 14
  %66 = load ptr, ptr %65, align 8
  store ptr %66, ptr %8, align 8
  %67 = load ptr, ptr %4, align 8
  %68 = load ptr, ptr %6, align 8
  %69 = call ptr @ExecGetInsertedCols(ptr noundef %67, ptr noundef %68)
  %70 = load ptr, ptr %4, align 8
  %71 = load ptr, ptr %6, align 8
  %72 = call ptr @ExecGetUpdatedCols(ptr noundef %70, ptr noundef %71)
  %73 = call ptr @bms_union(ptr noundef %69, ptr noundef %72)
  store ptr %73, ptr %10, align 8
  br label %74

74:                                               ; preds = %56, %48
  %75 = load i32, ptr %7, align 4
  %76 = load ptr, ptr %5, align 8
  %77 = load ptr, ptr %8, align 8
  %78 = load ptr, ptr %10, align 8
  %79 = call ptr @ExecBuildSlotValueDescription(i32 noundef %75, ptr noundef %76, ptr noundef %77, ptr noundef %78, i32 noundef 64)
  store ptr %79, ptr %9, align 8
  br label %80

80:                                               ; preds = %74
  br i1 true, label %81, label %83

81:                                               ; preds = %80
  %82 = call zeroext i1 @errstart_cold(i32 noundef 21, ptr noundef null) #10
  br i1 %82, label %85, label %107

83:                                               ; preds = %80
  %84 = call zeroext i1 @errstart(i32 noundef 21, ptr noundef null)
  br i1 %84, label %85, label %107

85:                                               ; preds = %83, %81
  %86 = call i32 @errcode(i32 noundef 67391682)
  %87 = load ptr, ptr %4, align 8
  %88 = getelementptr inbounds nuw %struct.ResultRelInfo, ptr %87, i32 0, i32 2
  %89 = load ptr, ptr %88, align 8
  %90 = getelementptr inbounds nuw %struct.RelationData, ptr %89, i32 0, i32 13
  %91 = load ptr, ptr %90, align 8
  %92 = getelementptr inbounds nuw %struct.FormData_pg_class, ptr %91, i32 0, i32 1
  %93 = getelementptr inbounds nuw %struct.nameData, ptr %92, i32 0, i32 0
  %94 = getelementptr inbounds [64 x i8], ptr %93, i64 0, i64 0
  %95 = call i32 (ptr, ...) @errmsg(ptr noundef @.str.14, ptr noundef %94)
  %96 = load ptr, ptr %9, align 8
  %97 = icmp ne ptr %96, null
  br i1 %97, label %98, label %101

98:                                               ; preds = %85
  %99 = load ptr, ptr %9, align 8
  %100 = call i32 (ptr, ...) @errdetail(ptr noundef @.str.15, ptr noundef %99)
  br label %102

101:                                              ; preds = %85
  br label %102

102:                                              ; preds = %101, %98
  %103 = load ptr, ptr %4, align 8
  %104 = getelementptr inbounds nuw %struct.ResultRelInfo, ptr %103, i32 0, i32 2
  %105 = load ptr, ptr %104, align 8
  %106 = call i32 @errtable(ptr noundef %105)
  call void @errfinish(ptr noundef @.str.1, i32 noundef 1935, ptr noundef @__func__.ExecPartitionCheckEmitError)
  br label %107

107:                                              ; preds = %102, %83, %81
  unreachable

108:                                              ; No predecessors!
  br label %109

109:                                              ; preds = %108
  call void @llvm.lifetime.end.p0(i64 8, ptr %10) #9
  call void @llvm.lifetime.end.p0(i64 8, ptr %9) #9
  call void @llvm.lifetime.end.p0(i64 8, ptr %8) #9
  call void @llvm.lifetime.end.p0(i64 4, ptr %7) #9
  ret void
}