; Function Attrs: noreturn nounwind uwtable
define dso_local void @ExecPartitionCheckEmitError(ptr noundef %0, ptr noundef %1, ptr noundef %2) local_unnamed_addr #5 {
  %4 = getelementptr inbounds nuw i8, ptr %0, i64 360
  %5 = load ptr, ptr %4, align 8
  %.not = icmp eq ptr %5, null
  br i1 %.not, label %21, label %6

6:                                                ; preds = %3
  %7 = getelementptr inbounds nuw i8, ptr %5, i64 8
  %8 = load ptr, ptr %7, align 8
  %9 = getelementptr inbounds nuw i8, ptr %8, i64 72
  %10 = load i32, ptr %9, align 8
  %11 = getelementptr inbounds nuw i8, ptr %8, i64 64
  %12 = load ptr, ptr %11, align 8
  %13 = getelementptr inbounds nuw i8, ptr %0, i64 8
  %14 = load ptr, ptr %13, align 8
  %15 = getelementptr inbounds nuw i8, ptr %14, i64 64
  %16 = load ptr, ptr %15, align 8
  %17 = tail call ptr @build_attrmap_by_name_if_req(ptr noundef %16, ptr noundef %12, i1 noundef zeroext false) #9
  %.not34 = icmp eq ptr %17, null
  br i1 %.not34, label %28, label %18

18:                                               ; preds = %6
  %19 = tail call ptr @MakeTupleTableSlot(ptr noundef %12, ptr noundef nonnull @TTSOpsVirtual) #9
  %20 = tail call ptr @execute_attr_map_slot(ptr noundef nonnull %17, ptr noundef %1, ptr noundef %19) #9
  br label %28

21:                                               ; preds = %3
  %22 = getelementptr inbounds nuw i8, ptr %0, i64 8
  %23 = load ptr, ptr %22, align 8
  %24 = getelementptr inbounds nuw i8, ptr %23, i64 72
  %25 = load i32, ptr %24, align 8
  %26 = getelementptr inbounds nuw i8, ptr %23, i64 64
  %27 = load ptr, ptr %26, align 8
  br label %28

28:                                               ; preds = %6, %18, %21
  %.sink38 = phi ptr [ %0, %21 ], [ %5, %18 ], [ %5, %6 ]
  %.029 = phi ptr [ %27, %21 ], [ %12, %18 ], [ %12, %6 ]
  %.028 = phi i32 [ %25, %21 ], [ %10, %18 ], [ %10, %6 ]
  %.1 = phi ptr [ %1, %21 ], [ %20, %18 ], [ %1, %6 ]
  %29 = tail call ptr @ExecGetInsertedCols(ptr noundef nonnull %.sink38, ptr noundef %2) #9
  %30 = tail call ptr @ExecGetUpdatedCols(ptr noundef nonnull %.sink38, ptr noundef %2) #9
  %31 = tail call ptr @bms_union(ptr noundef %29, ptr noundef %30) #9
  %32 = tail call ptr @ExecBuildSlotValueDescription(i32 noundef %.028, ptr noundef %.1, ptr noundef %.029, ptr noundef %31, i32 noundef 64)
  %33 = tail call zeroext i1 @errstart_cold(i32 noundef 21, ptr noundef null) #10
  tail call void @llvm.assume(i1 %33)
  %34 = tail call i32 @errcode(i32 noundef 67391682) #9
  %35 = getelementptr inbounds nuw i8, ptr %0, i64 8
  %36 = load ptr, ptr %35, align 8
  %37 = getelementptr inbounds nuw i8, ptr %36, i64 56
  %38 = load ptr, ptr %37, align 8
  %39 = getelementptr inbounds nuw i8, ptr %38, i64 4
  %40 = tail call i32 (ptr, ...) @errmsg(ptr noundef nonnull @.str.14, ptr noundef nonnull %39) #9
  %.not35 = icmp eq ptr %32, null
  br i1 %.not35, label %43, label %41

41:                                               ; preds = %28
  %42 = tail call i32 (ptr, ...) @errdetail(ptr noundef nonnull @.str.15, ptr noundef nonnull %32) #9
  br label %43

43:                                               ; preds = %28, %41
  %44 = load ptr, ptr %35, align 8
  %45 = tail call i32 @errtable(ptr noundef %44) #9
  tail call void @errfinish(ptr noundef nonnull @.str.1, i32 noundef 1935, ptr noundef nonnull @__func__.ExecPartitionCheckEmitError) #9
  unreachable
}